target datalayout = "e-m:e-p270:32:32-p271:32:32-p272:64:64-i64:64-i128:128-f80:128-n8:16:32:64-S128"
target triple = "x86_64-pc-linux-gnu"

@_ZN7rocksdb16ThreadStatusUtil27thread_updater_local_cache_E = thread_local global ptr null, align 8

; Function Attrs: mustprogress uwtable
define void @_ZN7rocksdb16ThreadStatusUtil17SetEnableTrackingEb(i1 noundef zeroext %0) #3 align 2 {
  %2 = alloca i8, align 1
  %3 = zext i1 %0 to i8
  store i8 %3, ptr %2, align 1, !tbaa !47
  %4 = call align 8 ptr @llvm.threadlocal.address.p0(ptr align 8 @_ZN7rocksdb16ThreadStatusUtil27thread_updater_local_cache_E)
  %5 = load ptr, ptr %4, align 8, !tbaa !43
  %6 = icmp eq ptr %5, null
  br i1 %6, label %7, label %8

7:                                                ; preds = %1
  br label %13

8:                                                ; preds = %1
  %9 = call align 8 ptr @llvm.threadlocal.address.p0(ptr align 8 @_ZN7rocksdb16ThreadStatusUtil27thread_updater_local_cache_E)
  %10 = load ptr, ptr %9, align 8, !tbaa !43
  %11 = load i8, ptr %2, align 1, !tbaa !47, !range !49, !noundef !50
  %12 = trunc i8 %11 to i1
  call void @_ZN7rocksdb19ThreadStatusUpdater17SetEnableTrackingEb(ptr noundef nonnull align 8 dereferenceable(216) %10, i1 noundef zeroext %12)
  br label %13

13:                                               ; preds = %8, %7
  ret void
}